; Function Attrs: nounwind uwtable
define range(i32 -21, 1) i32 @ARKodeGetNumMTSetups(ptr noundef %0, ptr noundef writeonly captures(none) %1) local_unnamed_addr #0 {
  %3 = icmp eq ptr %0, null
  br i1 %3, label %4, label %5

4:                                                ; preds = %2
  tail call void (ptr, i32, i32, ptr, ptr, ptr, ...) @arkProcessError(ptr noundef null, i32 noundef -21, i32 noundef 2183, ptr noundef nonnull @__func__.ARKodeGetNumMTSetups, ptr noundef nonnull @.str, ptr noundef nonnull @.str.1) #13
  br label %17

5:                                                ; preds = %2
  %6 = getelementptr inbounds nuw i8, ptr %0, i64 512
  %7 = load i32, ptr %6, align 8, !tbaa !105
  %.not = icmp eq i32 %7, 0
  br i1 %.not, label %8, label %9

8:                                                ; preds = %5
  store i64 0, ptr %1, align 8, !tbaa !146
  br label %17

9:                                                ; preds = %5
  %10 = getelementptr inbounds nuw i8, ptr %0, i64 536
  %11 = load ptr, ptr %10, align 8, !tbaa !75
  %12 = tail call ptr %11(ptr noundef nonnull %0) #13
  %13 = icmp eq ptr %12, null
  br i1 %13, label %arkLs_AccessMassMem.exit, label %14

arkLs_AccessMassMem.exit:                         ; preds = %9
  tail call void (ptr, i32, i32, ptr, ptr, ptr, ...) @arkProcessError(ptr noundef nonnull %0, i32 noundef -6, i32 noundef 4109, ptr noundef nonnull @__func__.ARKodeGetNumMTSetups, ptr noundef nonnull @.str, ptr noundef nonnull @.str.65) #13
  br label %17

14:                                               ; preds = %9
  %15 = getelementptr inbounds nuw i8, ptr %12, i64 88
  %16 = load i64, ptr %15, align 8, !tbaa !124
  store i64 %16, ptr %1, align 8, !tbaa !146
  br label %17

17:                                               ; preds = %arkLs_AccessMassMem.exit, %14, %8, %4
  %.0 = phi i32 [ -21, %4 ], [ 0, %14 ], [ 0, %8 ], [ -6, %arkLs_AccessMassMem.exit ]
  ret i32 %.0
}